; ModuleID = 'source-C-CXX/11/836.cpp'
source_filename = "source-C-CXX/11/836.cpp"
target datalayout = "e-m:e-p270:32:32-p271:32:32-p272:64:64-i64:64-f80:128-n8:16:32:64-S128"
target triple = "x86_64-pc-linux-gnu"

%"class.std::ios_base::Init" = type { i8 }
%"class.std::basic_istream" = type { i32 (...)**, i64, %"class.std::basic_ios" }
%"class.std::basic_ios" = type { %"class.std::ios_base", %"class.std::basic_ostream"*, i8, i8, %"class.std::basic_streambuf"*, %"class.std::ctype"*, %"class.std::num_put"*, %"class.std::num_get"* }
%"class.std::ios_base" = type { i32 (...)**, i64, i64, i32, i32, i32, %"struct.std::ios_base::_Callback_list"*, %"struct.std::ios_base::_Words", [8 x %"struct.std::ios_base::_Words"], i32, %"struct.std::ios_base::_Words"*, %"class.std::locale" }
%"struct.std::ios_base::_Callback_list" = type { %"struct.std::ios_base::_Callback_list"*, void (i32, %"class.std::ios_base"*, i32)*, i32, i32 }
%"struct.std::ios_base::_Words" = type { i8*, i64 }
%"class.std::locale" = type { %"class.std::locale::_Impl"* }
%"class.std::locale::_Impl" = type { i32, %"class.std::locale::facet"**, i64, %"class.std::locale::facet"**, i8** }
%"class.std::locale::facet" = type <{ i32 (...)**, i32, [4 x i8] }>
%"class.std::basic_ostream" = type { i32 (...)**, %"class.std::basic_ios" }
%"class.std::basic_streambuf" = type { i32 (...)**, i8*, i8*, i8*, i8*, i8*, i8*, %"class.std::locale" }
%"class.std::ctype" = type <{ %"class.std::locale::facet.base", [4 x i8], %struct.__locale_struct*, i8, [7 x i8], i32*, i32*, i16*, i8, [256 x i8], [256 x i8], i8, [6 x i8] }>
%"class.std::locale::facet.base" = type <{ i32 (...)**, i32 }>
%struct.__locale_struct = type { [13 x %struct.__locale_data*], i16*, i32*, i32*, [13 x i8*] }
%struct.__locale_data = type opaque
%"class.std::num_put" = type { %"class.std::locale::facet.base", [4 x i8] }
%"class.std::num_get" = type { %"class.std::locale::facet.base", [4 x i8] }

@_ZStL8__ioinit = internal global %"class.std::ios_base::Init" zeroinitializer, align 1
@__dso_handle = external hidden global i8
@_ZSt3cin = external global %"class.std::basic_istream", align 8
@_ZSt4cout = external global %"class.std::basic_ostream", align 8
@llvm.global_ctors = appending global [1 x { i32, void ()*, i8* }] [{ i32, void ()*, i8* } { i32 65535, void ()* @_GLOBAL__sub_I_836.cpp, i8* null }]

declare void @_ZNSt8ios_base4InitC1Ev(%"class.std::ios_base::Init"* nonnull align 1 dereferenceable(1)) unnamed_addr #0

; Function Attrs: nounwind
declare void @_ZNSt8ios_base4InitD1Ev(%"class.std::ios_base::Init"* nonnull align 1 dereferenceable(1)) unnamed_addr #1

; Function Attrs: nofree nounwind
declare i32 @__cxa_atexit(void (i8*)*, i8*, i8*) local_unnamed_addr #2

; Function Attrs: mustprogress norecurse sspstrong uwtable
define dso_local i32 @main() local_unnamed_addr #3 {
  %1 = alloca [200 x i32], align 16
  %2 = alloca i32, align 4
  %3 = bitcast [200 x i32]* %1 to i8*
  call void @llvm.lifetime.start.p0i8(i64 800, i8* nonnull %3) #8
  %4 = bitcast i32* %2 to i8*
  call void @llvm.lifetime.start.p0i8(i64 4, i8* nonnull %4) #8
  %5 = getelementptr inbounds [200 x i32], [200 x i32]* %1, i64 0, i64 1
  %6 = call nonnull align 8 dereferenceable(16) %"class.std::basic_istream"* @_ZNSirsERi(%"class.std::basic_istream"* nonnull align 8 dereferenceable(16) @_ZSt3cin, i32* nonnull align 4 dereferenceable(4) %5)
  %7 = load i32, i32* %5, align 4, !tbaa !5
  %8 = icmp eq i32 %7, -1
  br i1 %8, label %136, label %9

9:                                                ; preds = %0, %129
  %10 = phi i32 [ %134, %129 ], [ %7, %0 ]
  %11 = icmp eq i32 %10, 0
  br i1 %11, label %101, label %19

12:                                               ; preds = %19
  %13 = icmp eq i32 %21, 0
  br i1 %13, label %101, label %14

14:                                               ; preds = %12
  %15 = add nuw i32 %21, 2
  %16 = zext i32 %24 to i64
  %17 = zext i32 %15 to i64
  %18 = add nsw i64 %17, -2
  br label %33

19:                                               ; preds = %9, %19
  %20 = phi i64 [ %25, %19 ], [ 2, %9 ]
  %21 = phi i32 [ %24, %19 ], [ 0, %9 ]
  %22 = getelementptr inbounds [200 x i32], [200 x i32]* %1, i64 0, i64 %20
  %23 = call nonnull align 8 dereferenceable(16) %"class.std::basic_istream"* @_ZNSirsERi(%"class.std::basic_istream"* nonnull align 8 dereferenceable(16) @_ZSt3cin, i32* nonnull align 4 dereferenceable(4) %22)
  %24 = add nuw nsw i32 %21, 1
  %25 = add nuw i64 %20, 1
  %26 = load i32, i32* %22, align 4, !tbaa !5
  %27 = icmp eq i32 %26, 0
  br i1 %27, label %12, label %19, !llvm.loop !9

28:                                               ; preds = %88, %81
  %29 = phi i32 [ %83, %81 ], [ %98, %88 ]
  %30 = add nuw nsw i64 %36, 1
  %31 = icmp eq i64 %39, %16
  %32 = add i64 %34, 1
  br i1 %31, label %101, label %33, !llvm.loop !11

33:                                               ; preds = %28, %14
  %34 = phi i64 [ %32, %28 ], [ 0, %14 ]
  %35 = phi i64 [ %39, %28 ], [ 1, %14 ]
  %36 = phi i64 [ %30, %28 ], [ 2, %14 ]
  %37 = phi i32 [ %29, %28 ], [ 0, %14 ]
  %38 = sub i64 %18, %34
  %39 = add nuw nsw i64 %35, 1
  %40 = getelementptr inbounds [200 x i32], [200 x i32]* %1, i64 0, i64 %35
  %41 = load i32, i32* %40, align 4, !tbaa !5
  %42 = shl nsw i32 %41, 1
  %43 = icmp ult i64 %38, 8
  br i1 %43, label %85, label %44

44:                                               ; preds = %33
  %45 = and i64 %38, -8
  %46 = add i64 %36, %45
  %47 = insertelement <4 x i32> <i32 poison, i32 0, i32 0, i32 0>, i32 %37, i32 0
  %48 = insertelement <4 x i32> poison, i32 %41, i32 0
  %49 = shufflevector <4 x i32> %48, <4 x i32> poison, <4 x i32> zeroinitializer
  %50 = insertelement <4 x i32> poison, i32 %41, i32 0
  %51 = shufflevector <4 x i32> %50, <4 x i32> poison, <4 x i32> zeroinitializer
  %52 = insertelement <4 x i32> poison, i32 %42, i32 0
  %53 = shufflevector <4 x i32> %52, <4 x i32> poison, <4 x i32> zeroinitializer
  %54 = insertelement <4 x i32> poison, i32 %42, i32 0
  %55 = shufflevector <4 x i32> %54, <4 x i32> poison, <4 x i32> zeroinitializer
  br label %56

56:                                               ; preds = %56, %44
  %57 = phi i64 [ 0, %44 ], [ %79, %56 ]
  %58 = phi <4 x i32> [ %47, %44 ], [ %77, %56 ]
  %59 = phi <4 x i32> [ zeroinitializer, %44 ], [ %78, %56 ]
  %60 = add i64 %36, %57
  %61 = getelementptr inbounds [200 x i32], [200 x i32]* %1, i64 0, i64 %60
  %62 = bitcast i32* %61 to <4 x i32>*
  %63 = load <4 x i32>, <4 x i32>* %62, align 4, !tbaa !5
  %64 = getelementptr inbounds i32, i32* %61, i64 4
  %65 = bitcast i32* %64 to <4 x i32>*
  %66 = load <4 x i32>, <4 x i32>* %65, align 4, !tbaa !5
  %67 = shl nsw <4 x i32> %63, <i32 1, i32 1, i32 1, i32 1>
  %68 = shl nsw <4 x i32> %66, <i32 1, i32 1, i32 1, i32 1>
  %69 = icmp eq <4 x i32> %49, %67
  %70 = icmp eq <4 x i32> %51, %68
  %71 = icmp eq <4 x i32> %53, %63
  %72 = icmp eq <4 x i32> %55, %66
  %73 = select <4 x i1> %69, <4 x i1> <i1 true, i1 true, i1 true, i1 true>, <4 x i1> %71
  %74 = select <4 x i1> %70, <4 x i1> <i1 true, i1 true, i1 true, i1 true>, <4 x i1> %72
  %75 = zext <4 x i1> %73 to <4 x i32>
  %76 = zext <4 x i1> %74 to <4 x i32>
  %77 = add <4 x i32> %58, %75
  %78 = add <4 x i32> %59, %76
  %79 = add nuw i64 %57, 8
  %80 = icmp eq i64 %79, %45
  br i1 %80, label %81, label %56, !llvm.loop !12

81:                                               ; preds = %56
  %82 = add <4 x i32> %78, %77
  %83 = call i32 @llvm.vector.reduce.add.v4i32(<4 x i32> %82)
  %84 = icmp eq i64 %38, %45
  br i1 %84, label %28, label %85

85:                                               ; preds = %33, %81
  %86 = phi i64 [ %36, %33 ], [ %46, %81 ]
  %87 = phi i32 [ %37, %33 ], [ %83, %81 ]
  br label %88

88:                                               ; preds = %85, %88
  %89 = phi i64 [ %99, %88 ], [ %86, %85 ]
  %90 = phi i32 [ %98, %88 ], [ %87, %85 ]
  %91 = getelementptr inbounds [200 x i32], [200 x i32]* %1, i64 0, i64 %89
  %92 = load i32, i32* %91, align 4, !tbaa !5
  %93 = shl nsw i32 %92, 1
  %94 = icmp eq i32 %41, %93
  %95 = icmp eq i32 %42, %92
  %96 = select i1 %94, i1 true, i1 %95
  %97 = zext i1 %96 to i32
  %98 = add nsw i32 %90, %97
  %99 = add nuw nsw i64 %89, 1
  %100 = icmp eq i64 %99, %17
  br i1 %100, label %28, label %88, !llvm.loop !14

101:                                              ; preds = %28, %9, %12
  %102 = phi i32 [ 0, %12 ], [ 0, %9 ], [ %29, %28 ]
  %103 = call nonnull align 8 dereferenceable(8) %"class.std::basic_ostream"* @_ZNSolsEi(%"class.std::basic_ostream"* nonnull align 8 dereferenceable(8) @_ZSt4cout, i32 %102)
  %104 = bitcast %"class.std::basic_ostream"* %103 to i8**
  %105 = load i8*, i8** %104, align 8, !tbaa !16
  %106 = getelementptr i8, i8* %105, i64 -24
  %107 = bitcast i8* %106 to i64*
  %108 = load i64, i64* %107, align 8
  %109 = bitcast %"class.std::basic_ostream"* %103 to i8*
  %110 = add nsw i64 %108, 240
  %111 = getelementptr inbounds i8, i8* %109, i64 %110
  %112 = bitcast i8* %111 to %"class.std::ctype"**
  %113 = load %"class.std::ctype"*, %"class.std::ctype"** %112, align 8, !tbaa !18
  %114 = icmp eq %"class.std::ctype"* %113, null
  br i1 %114, label %115, label %116

115:                                              ; preds = %101
  call void @_ZSt16__throw_bad_castv() #9
  unreachable

116:                                              ; preds = %101
  %117 = getelementptr inbounds %"class.std::ctype", %"class.std::ctype"* %113, i64 0, i32 8
  %118 = load i8, i8* %117, align 8, !tbaa !22
  %119 = icmp eq i8 %118, 0
  br i1 %119, label %123, label %120

120:                                              ; preds = %116
  %121 = getelementptr inbounds %"class.std::ctype", %"class.std::ctype"* %113, i64 0, i32 9, i64 10
  %122 = load i8, i8* %121, align 1, !tbaa !24
  br label %129

123:                                              ; preds = %116
  call void @_ZNKSt5ctypeIcE13_M_widen_initEv(%"class.std::ctype"* nonnull align 8 dereferenceable(570) %113)
  %124 = bitcast %"class.std::ctype"* %113 to i8 (%"class.std::ctype"*, i8)***
  %125 = load i8 (%"class.std::ctype"*, i8)**, i8 (%"class.std::ctype"*, i8)*** %124, align 8, !tbaa !16
  %126 = getelementptr inbounds i8 (%"class.std::ctype"*, i8)*, i8 (%"class.std::ctype"*, i8)** %125, i64 6
  %127 = load i8 (%"class.std::ctype"*, i8)*, i8 (%"class.std::ctype"*, i8)** %126, align 8
  %128 = call signext i8 %127(%"class.std::ctype"* nonnull align 8 dereferenceable(570) %113, i8 signext 10)
  br label %129

129:                                              ; preds = %120, %123
  %130 = phi i8 [ %122, %120 ], [ %128, %123 ]
  %131 = call nonnull align 8 dereferenceable(8) %"class.std::basic_ostream"* @_ZNSo3putEc(%"class.std::basic_ostream"* nonnull align 8 dereferenceable(8) %103, i8 signext %130)
  %132 = call nonnull align 8 dereferenceable(8) %"class.std::basic_ostream"* @_ZNSo5flushEv(%"class.std::basic_ostream"* nonnull align 8 dereferenceable(8) %131)
  %133 = call nonnull align 8 dereferenceable(16) %"class.std::basic_istream"* @_ZNSirsERi(%"class.std::basic_istream"* nonnull align 8 dereferenceable(16) @_ZSt3cin, i32* nonnull align 4 dereferenceable(4) %5)
  %134 = load i32, i32* %5, align 4, !tbaa !5
  %135 = icmp eq i32 %134, -1
  br i1 %135, label %136, label %9, !llvm.loop !25

136:                                              ; preds = %129, %0
  %137 = call nonnull align 8 dereferenceable(16) %"class.std::basic_istream"* @_ZNSirsERi(%"class.std::basic_istream"* nonnull align 8 dereferenceable(16) @_ZSt3cin, i32* nonnull align 4 dereferenceable(4) %2)
  call void @llvm.lifetime.end.p0i8(i64 4, i8* nonnull %4) #8
  call void @llvm.lifetime.end.p0i8(i64 800, i8* nonnull %3) #8
  ret i32 0
}

; Function Attrs: argmemonly mustprogress nofree nosync nounwind willreturn
declare void @llvm.lifetime.start.p0i8(i64 immarg, i8* nocapture) #4

declare nonnull align 8 dereferenceable(16) %"class.std::basic_istream"* @_ZNSirsERi(%"class.std::basic_istream"* nonnull align 8 dereferenceable(16), i32* nonnull align 4 dereferenceable(4)) local_unnamed_addr #0

declare nonnull align 8 dereferenceable(8) %"class.std::basic_ostream"* @_ZNSolsEi(%"class.std::basic_ostream"* nonnull align 8 dereferenceable(8), i32) local_unnamed_addr #0

; Function Attrs: argmemonly mustprogress nofree nosync nounwind willreturn
declare void @llvm.lifetime.end.p0i8(i64 immarg, i8* nocapture) #4

declare nonnull align 8 dereferenceable(8) %"class.std::basic_ostream"* @_ZNSo3putEc(%"class.std::basic_ostream"* nonnull align 8 dereferenceable(8), i8 signext) local_unnamed_addr #0

declare nonnull align 8 dereferenceable(8) %"class.std::basic_ostream"* @_ZNSo5flushEv(%"class.std::basic_ostream"* nonnull align 8 dereferenceable(8)) local_unnamed_addr #0

; Function Attrs: noreturn
declare void @_ZSt16__throw_bad_castv() local_unnamed_addr #5

declare void @_ZNKSt5ctypeIcE13_M_widen_initEv(%"class.std::ctype"* nonnull align 8 dereferenceable(570)) local_unnamed_addr #0

; Function Attrs: sspstrong uwtable
define internal void @_GLOBAL__sub_I_836.cpp() #6 section ".text.startup" {
  tail call void @_ZNSt8ios_base4InitC1Ev(%"class.std::ios_base::Init"* nonnull align 1 dereferenceable(1) @_ZStL8__ioinit)
  %1 = tail call i32 @__cxa_atexit(void (i8*)* bitcast (void (%"class.std::ios_base::Init"*)* @_ZNSt8ios_base4InitD1Ev to void (i8*)*), i8* getelementptr inbounds (%"class.std::ios_base::Init", %"class.std::ios_base::Init"* @_ZStL8__ioinit, i64 0, i32 0), i8* nonnull @__dso_handle) #8
  ret void
}

; Function Attrs: nofree nosync nounwind readnone willreturn
declare i32 @llvm.vector.reduce.add.v4i32(<4 x i32>) #7


!llvm.module.flags = !{!0, !1, !2, !3}
!llvm.ident = !{!4}

!0 = !{i32 1, !"wchar_size", i32 4}
!1 = !{i32 7, !"PIC Level", i32 2}
!2 = !{i32 7, !"PIE Level", i32 2}
!3 = !{i32 7, !"uwtable", i32 1}
!4 = !{!"clang version 13.0.0"}
!5 = !{!6, !6, i64 0}
!6 = !{!"int", !7, i64 0}
!7 = !{!"omnipotent char", !8, i64 0}
!8 = !{!"Simple C++ TBAA"}
!9 = distinct !{!9, !10}
!10 = !{!"llvm.loop.mustprogress"}
!11 = distinct !{!11, !10}
!12 = distinct !{!12, !10, !13}
!13 = !{!"llvm.loop.isvectorized", i32 1}
!14 = distinct !{!14, !10, !15, !13}
!15 = !{!"llvm.loop.unroll.runtime.disable"}
!16 = !{!17, !17, i64 0}
!17 = !{!"vtable pointer", !8, i64 0}
!18 = !{!19, !20, i64 240}
!19 = !{!"_ZTSSt9basic_iosIcSt11char_traitsIcEE", !20, i64 216, !7, i64 224, !21, i64 225, !20, i64 232, !20, i64 240, !20, i64 248, !20, i64 256}
!20 = !{!"any pointer", !7, i64 0}
!21 = !{!"bool", !7, i64 0}
!22 = !{!23, !7, i64 56}
!23 = !{!"_ZTSSt5ctypeIcE", !20, i64 16, !21, i64 24, !20, i64 32, !20, i64 40, !20, i64 48, !7, i64 56, !7, i64 57, !7, i64 313, !7, i64 569}
!24 = !{!7, !7, i64 0}
!25 = distinct !{!25, !10}
